target datalayout = "e-m:e-p270:32:32-p271:32:32-p272:64:64-i64:64-i128:128-f80:128-n8:16:32:64-S128"
target triple = "x86_64-pc-linux-gnu"

%struct.stbi__result_info = type { i32, i32, i32 }

@_ZL22stbi__g_failure_reason = internal global ptr null, align 8
@_ZL36stbi__vertically_flip_on_load_global = internal global i32 0, align 4
@.str.23 = private unnamed_addr constant [9 x i8] c"outofmem\00", align 1

; Function Attrs: mustprogress nounwind uwtable
define internal noundef i32 @_ZL9stbi__errPKc(ptr noundef %0) #0 {
  %2 = alloca ptr, align 8
  store ptr %0, ptr %2, align 8, !tbaa !5
  %3 = load ptr, ptr %2, align 8, !tbaa !5
  store ptr %3, ptr @_ZL22stbi__g_failure_reason, align 8, !tbaa !5
  ret i32 0
}

; Function Attrs: mustprogress nounwind uwtable
define internal noundef ptr @_ZL12stbi__mallocm(i64 noundef %0) #0 {
  %2 = alloca i64, align 8
  store i64 %0, ptr %2, align 8, !tbaa !40
  %3 = load i64, ptr %2, align 8, !tbaa !40
  %4 = call noalias ptr @malloc(i64 noundef %3) #24
  ret ptr %4
}

; Function Attrs: mustprogress nounwind uwtable
define internal void @_ZL19stbi__vertical_flipPviii(ptr noundef %0, i32 noundef %1, i32 noundef %2, i32 noundef %3) #0 {
  %5 = alloca ptr, align 8
  %6 = alloca i32, align 4
  %7 = alloca i32, align 4
  %8 = alloca i32, align 4
  %9 = alloca i32, align 4
  %10 = alloca i64, align 8
  %11 = alloca [2048 x i8], align 16
  %12 = alloca ptr, align 8
  %13 = alloca ptr, align 8
  %14 = alloca ptr, align 8
  %15 = alloca i64, align 8
  %16 = alloca i64, align 8
  store ptr %0, ptr %5, align 8, !tbaa !10
  store i32 %1, ptr %6, align 4, !tbaa !11
  store i32 %2, ptr %7, align 4, !tbaa !11
  store i32 %3, ptr %8, align 4, !tbaa !11
  call void @llvm.lifetime.start.p0(i64 4, ptr %9) #22
  call void @llvm.lifetime.start.p0(i64 8, ptr %10) #22
  %17 = load i32, ptr %6, align 4, !tbaa !11
  %18 = sext i32 %17 to i64
  %19 = load i32, ptr %8, align 4, !tbaa !11
  %20 = sext i32 %19 to i64
  %21 = mul i64 %18, %20
  store i64 %21, ptr %10, align 8, !tbaa !40
  call void @llvm.lifetime.start.p0(i64 2048, ptr %11) #22
  call void @llvm.lifetime.start.p0(i64 8, ptr %12) #22
  %22 = load ptr, ptr %5, align 8, !tbaa !10
  store ptr %22, ptr %12, align 8, !tbaa !5
  store i32 0, ptr %9, align 4, !tbaa !11
  br label %23

23:                                               ; preds = %75, %4
  %24 = load i32, ptr %9, align 4, !tbaa !11
  %25 = load i32, ptr %7, align 4, !tbaa !11
  %26 = ashr i32 %25, 1
  %27 = icmp slt i32 %24, %26
  br i1 %27, label %28, label %78

28:                                               ; preds = %23
  call void @llvm.lifetime.start.p0(i64 8, ptr %13) #22
  %29 = load ptr, ptr %12, align 8, !tbaa !5
  %30 = load i32, ptr %9, align 4, !tbaa !11
  %31 = sext i32 %30 to i64
  %32 = load i64, ptr %10, align 8, !tbaa !40
  %33 = mul i64 %31, %32
  %34 = getelementptr inbounds nuw i8, ptr %29, i64 %33
  store ptr %34, ptr %13, align 8, !tbaa !5
  call void @llvm.lifetime.start.p0(i64 8, ptr %14) #22
  %35 = load ptr, ptr %12, align 8, !tbaa !5
  %36 = load i32, ptr %7, align 4, !tbaa !11
  %37 = load i32, ptr %9, align 4, !tbaa !11
  %38 = sub nsw i32 %36, %37
  %39 = sub nsw i32 %38, 1
  %40 = sext i32 %39 to i64
  %41 = load i64, ptr %10, align 8, !tbaa !40
  %42 = mul i64 %40, %41
  %43 = getelementptr inbounds nuw i8, ptr %35, i64 %42
  store ptr %43, ptr %14, align 8, !tbaa !5
  call void @llvm.lifetime.start.p0(i64 8, ptr %15) #22
  %44 = load i64, ptr %10, align 8, !tbaa !40
  store i64 %44, ptr %15, align 8, !tbaa !40
  br label %45

45:                                               ; preds = %54, %28
  %46 = load i64, ptr %15, align 8, !tbaa !40
  %47 = icmp ne i64 %46, 0
  br i1 %47, label %48, label %74

48:                                               ; preds = %45
  call void @llvm.lifetime.start.p0(i64 8, ptr %16) #22
  %49 = load i64, ptr %15, align 8, !tbaa !40
  %50 = icmp ult i64 %49, 2048
  br i1 %50, label %51, label %53

51:                                               ; preds = %48
  %52 = load i64, ptr %15, align 8, !tbaa !40
  br label %54

53:                                               ; preds = %48
  br label %54

54:                                               ; preds = %53, %51
  %55 = phi i64 [ %52, %51 ], [ 2048, %53 ]
  store i64 %55, ptr %16, align 8, !tbaa !40
  %56 = getelementptr inbounds [2048 x i8], ptr %11, i64 0, i64 0
  %57 = load ptr, ptr %13, align 8, !tbaa !5
  %58 = load i64, ptr %16, align 8, !tbaa !40
  call void @llvm.memcpy.p0.p0.i64(ptr align 16 %56, ptr align 1 %57, i64 %58, i1 false)
  %59 = load ptr, ptr %13, align 8, !tbaa !5
  %60 = load ptr, ptr %14, align 8, !tbaa !5
  %61 = load i64, ptr %16, align 8, !tbaa !40
  call void @llvm.memcpy.p0.p0.i64(ptr align 1 %59, ptr align 1 %60, i64 %61, i1 false)
  %62 = load ptr, ptr %14, align 8, !tbaa !5
  %63 = getelementptr inbounds [2048 x i8], ptr %11, i64 0, i64 0
  %64 = load i64, ptr %16, align 8, !tbaa !40
  call void @llvm.memcpy.p0.p0.i64(ptr align 1 %62, ptr align 16 %63, i64 %64, i1 false)
  %65 = load i64, ptr %16, align 8, !tbaa !40
  %66 = load ptr, ptr %13, align 8, !tbaa !5
  %67 = getelementptr inbounds nuw i8, ptr %66, i64 %65
  store ptr %67, ptr %13, align 8, !tbaa !5
  %68 = load i64, ptr %16, align 8, !tbaa !40
  %69 = load ptr, ptr %14, align 8, !tbaa !5
  %70 = getelementptr inbounds nuw i8, ptr %69, i64 %68
  store ptr %70, ptr %14, align 8, !tbaa !5
  %71 = load i64, ptr %16, align 8, !tbaa !40
  %72 = load i64, ptr %15, align 8, !tbaa !40
  %73 = sub i64 %72, %71
  store i64 %73, ptr %15, align 8, !tbaa !40
  call void @llvm.lifetime.end.p0(i64 8, ptr %16) #22
  br label %45, !llvm.loop !42

74:                                               ; preds = %45
  call void @llvm.lifetime.end.p0(i64 8, ptr %15) #22
  call void @llvm.lifetime.end.p0(i64 8, ptr %14) #22
  call void @llvm.lifetime.end.p0(i64 8, ptr %13) #22
  br label %75

75:                                               ; preds = %74
  %76 = load i32, ptr %9, align 4, !tbaa !11
  %77 = add nsw i32 %76, 1
  store i32 %77, ptr %9, align 4, !tbaa !11
  br label %23, !llvm.loop !43

78:                                               ; preds = %23
  call void @llvm.lifetime.end.p0(i64 8, ptr %12) #22
  call void @llvm.lifetime.end.p0(i64 2048, ptr %11) #22
  call void @llvm.lifetime.end.p0(i64 8, ptr %10) #22
  call void @llvm.lifetime.end.p0(i64 4, ptr %9) #22
  ret void
}

; Function Attrs: mustprogress nounwind uwtable
define internal noundef ptr @_ZL21stbi__convert_8_to_16Phiii(ptr noundef %0, i32 noundef %1, i32 noundef %2, i32 noundef %3) #0 {
  %5 = alloca ptr, align 8
  %6 = alloca ptr, align 8
  %7 = alloca i32, align 4
  %8 = alloca i32, align 4
  %9 = alloca i32, align 4
  %10 = alloca i32, align 4
  %11 = alloca i32, align 4
  %12 = alloca ptr, align 8
  %13 = alloca i32, align 4
  store ptr %0, ptr %6, align 8, !tbaa !5
  store i32 %1, ptr %7, align 4, !tbaa !11
  store i32 %2, ptr %8, align 4, !tbaa !11
  store i32 %3, ptr %9, align 4, !tbaa !11
  call void @llvm.lifetime.start.p0(i64 4, ptr %10) #22
  call void @llvm.lifetime.start.p0(i64 4, ptr %11) #22
  %14 = load i32, ptr %7, align 4, !tbaa !11
  %15 = load i32, ptr %8, align 4, !tbaa !11
  %16 = mul nsw i32 %14, %15
  %17 = load i32, ptr %9, align 4, !tbaa !11
  %18 = mul nsw i32 %16, %17
  store i32 %18, ptr %11, align 4, !tbaa !11
  call void @llvm.lifetime.start.p0(i64 8, ptr %12) #22
  %19 = load i32, ptr %11, align 4, !tbaa !11
  %20 = mul nsw i32 %19, 2
  %21 = sext i32 %20 to i64
  %22 = call noundef ptr @_ZL12stbi__mallocm(i64 noundef %21)
  store ptr %22, ptr %12, align 8, !tbaa !34
  %23 = load ptr, ptr %12, align 8, !tbaa !34
  %24 = icmp eq ptr %23, null
  br i1 %24, label %25, label %30

25:                                               ; preds = %4
  %26 = call noundef i32 @_ZL9stbi__errPKc(ptr noundef @.str.23)
  %27 = icmp ne i32 %26, 0
  %28 = select i1 %27, i64 0, i64 0
  %29 = inttoptr i64 %28 to ptr
  store ptr %29, ptr %5, align 8
  store i32 1, ptr %13, align 4
  br label %61

30:                                               ; preds = %4
  store i32 0, ptr %10, align 4, !tbaa !11
  br label %31

31:                                               ; preds = %55, %30
  %32 = load i32, ptr %10, align 4, !tbaa !11
  %33 = load i32, ptr %11, align 4, !tbaa !11
  %34 = icmp slt i32 %32, %33
  br i1 %34, label %35, label %58

35:                                               ; preds = %31
  %36 = load ptr, ptr %6, align 8, !tbaa !5
  %37 = load i32, ptr %10, align 4, !tbaa !11
  %38 = sext i32 %37 to i64
  %39 = getelementptr inbounds i8, ptr %36, i64 %38
  %40 = load i8, ptr %39, align 1, !tbaa !31
  %41 = zext i8 %40 to i32
  %42 = shl i32 %41, 8
  %43 = load ptr, ptr %6, align 8, !tbaa !5
  %44 = load i32, ptr %10, align 4, !tbaa !11
  %45 = sext i32 %44 to i64
  %46 = getelementptr inbounds i8, ptr %43, i64 %45
  %47 = load i8, ptr %46, align 1, !tbaa !31
  %48 = zext i8 %47 to i32
  %49 = add nsw i32 %42, %48
  %50 = trunc i32 %49 to i16
  %51 = load ptr, ptr %12, align 8, !tbaa !34
  %52 = load i32, ptr %10, align 4, !tbaa !11
  %53 = sext i32 %52 to i64
  %54 = getelementptr inbounds i16, ptr %51, i64 %53
  store i16 %50, ptr %54, align 2, !tbaa !36
  br label %55

55:                                               ; preds = %35
  %56 = load i32, ptr %10, align 4, !tbaa !11
  %57 = add nsw i32 %56, 1
  store i32 %57, ptr %10, align 4, !tbaa !11
  br label %31, !llvm.loop !301

58:                                               ; preds = %31
  %59 = load ptr, ptr %6, align 8, !tbaa !5
  call void @free(ptr noundef %59) #22
  %60 = load ptr, ptr %12, align 8, !tbaa !34
  store ptr %60, ptr %5, align 8
  store i32 1, ptr %13, align 4
  br label %61

61:                                               ; preds = %58, %25
  call void @llvm.lifetime.end.p0(i64 8, ptr %12) #22
  call void @llvm.lifetime.end.p0(i64 4, ptr %11) #22
  call void @llvm.lifetime.end.p0(i64 4, ptr %10) #22
  %62 = load ptr, ptr %5, align 8
  ret ptr %62
}

; Function Attrs: mustprogress uwtable
define internal noundef ptr @_ZL32stbi__load_and_postprocess_16bitP13stbi__contextPiS1_S1_i(ptr noundef %0, ptr noundef %1, ptr noundef %2, ptr noundef %3, i32 noundef %4) #2 {
  %6 = alloca ptr, align 8
  %7 = alloca ptr, align 8
  %8 = alloca ptr, align 8
  %9 = alloca ptr, align 8
  %10 = alloca ptr, align 8
  %11 = alloca i32, align 4
  %12 = alloca %struct.stbi__result_info, align 4
  %13 = alloca ptr, align 8
  %14 = alloca i32, align 4
  %15 = alloca i32, align 4
  store ptr %0, ptr %7, align 8, !tbaa !10
  store ptr %1, ptr %8, align 8, !tbaa !13
  store ptr %2, ptr %9, align 8, !tbaa !13
  store ptr %3, ptr %10, align 8, !tbaa !13
  store i32 %4, ptr %11, align 4, !tbaa !11
  call void @llvm.lifetime.start.p0(i64 12, ptr %12) #22
  call void @llvm.lifetime.start.p0(i64 8, ptr %13) #22
  %16 = load ptr, ptr %7, align 8, !tbaa !10
  %17 = load ptr, ptr %8, align 8, !tbaa !13
  %18 = load ptr, ptr %9, align 8, !tbaa !13
  %19 = load ptr, ptr %10, align 8, !tbaa !13
  %20 = load i32, ptr %11, align 4, !tbaa !11
  %21 = call noundef ptr @_ZL15stbi__load_mainP13stbi__contextPiS1_S1_iP17stbi__result_infoi(ptr noundef %16, ptr noundef %17, ptr noundef %18, ptr noundef %19, i32 noundef %20, ptr noundef %12, i32 noundef 16)
  store ptr %21, ptr %13, align 8, !tbaa !10
  %22 = load ptr, ptr %13, align 8, !tbaa !10
  %23 = icmp eq ptr %22, null
  br i1 %23, label %24, label %25

24:                                               ; preds = %5
  store ptr null, ptr %6, align 8
  store i32 1, ptr %14, align 4
  br label %70

25:                                               ; preds = %5
  %26 = getelementptr inbounds nuw %struct.stbi__result_info, ptr %12, i32 0, i32 0
  %27 = load i32, ptr %26, align 4, !tbaa !21
  %28 = icmp ne i32 %27, 16
  br i1 %28, label %29, label %46

29:                                               ; preds = %25
  %30 = load ptr, ptr %13, align 8, !tbaa !10
  %31 = load ptr, ptr %8, align 8, !tbaa !13
  %32 = load i32, ptr %31, align 4, !tbaa !11
  %33 = load ptr, ptr %9, align 8, !tbaa !13
  %34 = load i32, ptr %33, align 4, !tbaa !11
  %35 = load i32, ptr %11, align 4, !tbaa !11
  %36 = icmp eq i32 %35, 0
  br i1 %36, label %37, label %40

37:                                               ; preds = %29
  %38 = load ptr, ptr %10, align 8, !tbaa !13
  %39 = load i32, ptr %38, align 4, !tbaa !11
  br label %42

40:                                               ; preds = %29
  %41 = load i32, ptr %11, align 4, !tbaa !11
  br label %42

42:                                               ; preds = %40, %37
  %43 = phi i32 [ %39, %37 ], [ %41, %40 ]
  %44 = call noundef ptr @_ZL21stbi__convert_8_to_16Phiii(ptr noundef %30, i32 noundef %32, i32 noundef %34, i32 noundef %43)
  store ptr %44, ptr %13, align 8, !tbaa !10
  %45 = getelementptr inbounds nuw %struct.stbi__result_info, ptr %12, i32 0, i32 0
  store i32 16, ptr %45, align 4, !tbaa !21
  br label %46

46:                                               ; preds = %42, %25
  %47 = load i32, ptr @_ZL36stbi__vertically_flip_on_load_global, align 4, !tbaa !11
  %48 = icmp ne i32 %47, 0
  br i1 %48, label %49, label %68

49:                                               ; preds = %46
  call void @llvm.lifetime.start.p0(i64 4, ptr %15) #22
  %50 = load i32, ptr %11, align 4, !tbaa !11
  %51 = icmp ne i32 %50, 0
  br i1 %51, label %52, label %54

52:                                               ; preds = %49
  %53 = load i32, ptr %11, align 4, !tbaa !11
  br label %57

54:                                               ; preds = %49
  %55 = load ptr, ptr %10, align 8, !tbaa !13
  %56 = load i32, ptr %55, align 4, !tbaa !11
  br label %57

57:                                               ; preds = %54, %52
  %58 = phi i32 [ %53, %52 ], [ %56, %54 ]
  store i32 %58, ptr %15, align 4, !tbaa !11
  %59 = load ptr, ptr %13, align 8, !tbaa !10
  %60 = load ptr, ptr %8, align 8, !tbaa !13
  %61 = load i32, ptr %60, align 4, !tbaa !11
  %62 = load ptr, ptr %9, align 8, !tbaa !13
  %63 = load i32, ptr %62, align 4, !tbaa !11
  %64 = load i32, ptr %15, align 4, !tbaa !11
  %65 = sext i32 %64 to i64
  %66 = mul i64 %65, 2
  %67 = trunc i64 %66 to i32
  call void @_ZL19stbi__vertical_flipPviii(ptr noundef %59, i32 noundef %61, i32 noundef %63, i32 noundef %67)
  call void @llvm.lifetime.end.p0(i64 4, ptr %15) #22
  br label %68

68:                                               ; preds = %57, %46
  %69 = load ptr, ptr %13, align 8, !tbaa !10
  store ptr %69, ptr %6, align 8
  store i32 1, ptr %14, align 4
  br label %70

70:                                               ; preds = %68, %24
  call void @llvm.lifetime.end.p0(i64 8, ptr %13) #22
  call void @llvm.lifetime.end.p0(i64 12, ptr %12) #22
  %71 = load ptr, ptr %6, align 8
  ret ptr %71
}