; Function Attrs: mustprogress uwtable
define internal fastcc noundef ptr @_ZL32stbi__load_and_postprocess_16bitP13stbi__contextPiS1_S1_i(ptr noundef nonnull %0, ptr noundef captures(none) %1, ptr noundef captures(none) %2, ptr noundef %3, i32 noundef %4) unnamed_addr #4 {
  %6 = alloca [2048 x i8], align 16
  %7 = alloca %struct.stbi__result_info, align 4
  call void @llvm.lifetime.start.p0(i64 12, ptr nonnull %7) #35
  %8 = call fastcc noundef ptr @_ZL15stbi__load_mainP13stbi__contextPiS1_S1_iP17stbi__result_infoi(ptr noundef %0, ptr noundef %1, ptr noundef %2, ptr noundef %3, i32 noundef %4, ptr noundef %7)
  %9 = icmp eq ptr %8, null
  br i1 %9, label %61, label %10

10:                                               ; preds = %5
  %11 = load i32, ptr %7, align 4, !tbaa !26
  %.not = icmp eq i32 %11, 16
  br i1 %.not, label %33, label %12

12:                                               ; preds = %10
  %13 = load i32, ptr %1, align 4, !tbaa !10
  %14 = load i32, ptr %2, align 4, !tbaa !10
  %15 = icmp eq i32 %4, 0
  br i1 %15, label %16, label %18

16:                                               ; preds = %12
  %17 = load i32, ptr %3, align 4, !tbaa !10
  br label %18

18:                                               ; preds = %12, %16
  %19 = phi i32 [ %17, %16 ], [ %4, %12 ]
  %20 = mul nsw i32 %14, %13
  %21 = mul nsw i32 %20, %19
  %22 = shl nsw i32 %21, 1
  %23 = sext i32 %22 to i64
  %24 = tail call noalias noundef ptr @malloc(i64 noundef range(i64 -2147483648, 4294967296) %23) #36
  %25 = icmp eq ptr %24, null
  br i1 %25, label %27, label %.preheader.i

.preheader.i:                                     ; preds = %18
  %26 = icmp sgt i32 %21, 0
  br i1 %26, label %.lr.ph.preheader.i, label %._crit_edge.i

.lr.ph.preheader.i:                               ; preds = %.preheader.i
  %wide.trip.count.i = zext nneg i32 %21 to i64
  br label %.lr.ph.i

27:                                               ; preds = %18
  store ptr @.str.23, ptr @_ZL22stbi__g_failure_reason, align 8, !tbaa !5
  br label %_ZL21stbi__convert_8_to_16Phiii.exit

.lr.ph.i:                                         ; preds = %.lr.ph.i, %.lr.ph.preheader.i
  %indvars.iv.i = phi i64 [ 0, %.lr.ph.preheader.i ], [ %indvars.iv.next.i, %.lr.ph.i ]
  %28 = getelementptr inbounds nuw i8, ptr %8, i64 %indvars.iv.i
  %29 = load i8, ptr %28, align 1, !tbaa !23
  %30 = zext i8 %29 to i16
  %31 = mul nuw i16 %30, 257
  %32 = getelementptr inbounds nuw i16, ptr %24, i64 %indvars.iv.i
  store i16 %31, ptr %32, align 2, !tbaa !28
  %indvars.iv.next.i = add nuw nsw i64 %indvars.iv.i, 1
  %exitcond.not.i = icmp eq i64 %indvars.iv.next.i, %wide.trip.count.i
  br i1 %exitcond.not.i, label %._crit_edge.i, label %.lr.ph.i, !llvm.loop !286

._crit_edge.i:                                    ; preds = %.lr.ph.i, %.preheader.i
  tail call void @free(ptr noundef nonnull %8) #35
  br label %_ZL21stbi__convert_8_to_16Phiii.exit

_ZL21stbi__convert_8_to_16Phiii.exit:             ; preds = %27, %._crit_edge.i
  store i32 16, ptr %7, align 4, !tbaa !26
  br label %33

33:                                               ; preds = %_ZL21stbi__convert_8_to_16Phiii.exit, %10
  %.020 = phi ptr [ %24, %_ZL21stbi__convert_8_to_16Phiii.exit ], [ %8, %10 ]
  %34 = load i32, ptr @_ZL36stbi__vertically_flip_on_load_global, align 4, !tbaa !10
  %.not23 = icmp eq i32 %34, 0
  br i1 %.not23, label %61, label %35

35:                                               ; preds = %33
  %.not24 = icmp eq i32 %4, 0
  br i1 %.not24, label %36, label %38

36:                                               ; preds = %35
  %37 = load i32, ptr %3, align 4, !tbaa !10
  br label %38

38:                                               ; preds = %35, %36
  %39 = phi i32 [ %37, %36 ], [ %4, %35 ]
  %40 = load i32, ptr %1, align 4, !tbaa !10
  %41 = load i32, ptr %2, align 4, !tbaa !10
  %42 = shl i32 %39, 1
  %43 = sext i32 %40 to i64
  %44 = sext i32 %42 to i64
  %45 = mul nsw i64 %44, %43
  call void @llvm.lifetime.start.p0(i64 2048, ptr nonnull %6)
  %46 = ashr i32 %41, 1
  %47 = icmp slt i32 %46, 1
  %.not32.i = icmp eq i64 %45, 0
  %or.cond.i = select i1 %47, i1 true, i1 %.not32.i
  br i1 %or.cond.i, label %_ZL19stbi__vertical_flipPviii.exit, label %.lr.ph.preheader.i25

.lr.ph.preheader.i25:                             ; preds = %38
  %wide.trip.count.i26 = zext nneg i32 %46 to i64
  br label %.lr.ph.i27

.lr.ph.i27:                                       ; preds = %._crit_edge.i29, %.lr.ph.preheader.i25
  %indvars.iv.i28 = phi i64 [ 0, %.lr.ph.preheader.i25 ], [ %indvars.iv.next.i30, %._crit_edge.i29 ]
  %48 = mul i64 %indvars.iv.i28, %45
  %49 = getelementptr inbounds nuw i8, ptr %.020, i64 %48
  %50 = trunc i64 %indvars.iv.i28 to i32
  %51 = xor i32 %50, -1
  %52 = add i32 %41, %51
  %53 = sext i32 %52 to i64
  %54 = mul i64 %45, %53
  %55 = getelementptr inbounds nuw i8, ptr %.020, i64 %54
  br label %56

56:                                               ; preds = %56, %.lr.ph.i27
  %.02935.i = phi i64 [ %45, %.lr.ph.i27 ], [ %60, %56 ]
  %.03034.i = phi ptr [ %55, %.lr.ph.i27 ], [ %59, %56 ]
  %.03133.i = phi ptr [ %49, %.lr.ph.i27 ], [ %58, %56 ]
  %57 = tail call i64 @llvm.umin.i64(i64 %.02935.i, i64 2048)
  call void @llvm.memcpy.p0.p0.i64(ptr nonnull align 16 %6, ptr align 1 %.03133.i, i64 %57, i1 false)
  tail call void @llvm.memcpy.p0.p0.i64(ptr align 1 %.03133.i, ptr align 1 %.03034.i, i64 %57, i1 false)
  call void @llvm.memcpy.p0.p0.i64(ptr align 1 %.03034.i, ptr nonnull align 16 %6, i64 %57, i1 false)
  %58 = getelementptr inbounds nuw i8, ptr %.03133.i, i64 %57
  %59 = getelementptr inbounds nuw i8, ptr %.03034.i, i64 %57
  %60 = sub i64 %.02935.i, %57
  %.not.i = icmp eq i64 %60, 0
  br i1 %.not.i, label %._crit_edge.i29, label %56, !llvm.loop !32

._crit_edge.i29:                                  ; preds = %56
  %indvars.iv.next.i30 = add nuw nsw i64 %indvars.iv.i28, 1
  %exitcond.not.i31 = icmp eq i64 %indvars.iv.next.i30, %wide.trip.count.i26
  br i1 %exitcond.not.i31, label %_ZL19stbi__vertical_flipPviii.exit, label %.lr.ph.i27, !llvm.loop !33

_ZL19stbi__vertical_flipPviii.exit:               ; preds = %._crit_edge.i29, %38
  call void @llvm.lifetime.end.p0(i64 2048, ptr nonnull %6)
  br label %61

61:                                               ; preds = %33, %_ZL19stbi__vertical_flipPviii.exit, %5
  %.0 = phi ptr [ null, %5 ], [ %.020, %_ZL19stbi__vertical_flipPviii.exit ], [ %.020, %33 ]
  call void @llvm.lifetime.end.p0(i64 12, ptr nonnull %7) #35
  ret ptr %.0
}